target datalayout = "e-m:e-p270:32:32-p271:32:32-p272:64:64-i64:64-i128:128-f80:128-n8:16:32:64-S128"
target triple = "x86_64-pc-linux-gnu"

%struct.ReplicationSlotCtlData = type { [1 x %struct.ReplicationSlot] }
%struct.ReplicationSlot = type { i8, i8, i32, i8, i8, i32, i32, %struct.ReplicationSlotPersistentData, %struct.LWLock, %struct.ConditionVariable, i32, i64, i64, i64, i64, i64 }
%struct.ReplicationSlotPersistentData = type { %struct.nameData, i32, i32, i32, i32, i64, i32, i64, i64, i8, %struct.nameData, i8, i8 }
%struct.nameData = type { [64 x i8] }
%struct.LWLock = type { i16, %struct.pg_atomic_uint32, %struct.proclist_head }
%struct.pg_atomic_uint32 = type { i32 }
%struct.proclist_head = type { i32, i32 }
%struct.ConditionVariable = type { i8, %struct.proclist_head }

@ReplicationSlotCtl = dso_local global ptr null, align 8
@max_replication_slots = dso_local global i32 10, align 4
@.str.4 = private unnamed_addr constant [20 x i8] c"ReplicationSlot Ctl\00", align 1

; Function Attrs: nounwind uwtable
define dso_local i64 @ReplicationSlotsShmemSize() #0 {
  %1 = alloca i64, align 8
  %2 = alloca i64, align 8
  %3 = alloca i32, align 4
  call void @llvm.lifetime.start.p0(i64 8, ptr %2) #12
  store i64 0, ptr %2, align 8
  %4 = load i32, ptr @max_replication_slots, align 4
  %5 = icmp eq i32 %4, 0
  br i1 %5, label %6, label %8

6:                                                ; preds = %0
  %7 = load i64, ptr %2, align 8
  store i64 %7, ptr %1, align 8
  store i32 1, ptr %3, align 4
  br label %15

8:                                                ; preds = %0
  store i64 0, ptr %2, align 8
  %9 = load i64, ptr %2, align 8
  %10 = load i32, ptr @max_replication_slots, align 4
  %11 = sext i32 %10 to i64
  %12 = call i64 @mul_size(i64 noundef %11, i64 noundef 280)
  %13 = call i64 @add_size(i64 noundef %9, i64 noundef %12)
  store i64 %13, ptr %2, align 8
  %14 = load i64, ptr %2, align 8
  store i64 %14, ptr %1, align 8
  store i32 1, ptr %3, align 4
  br label %15

15:                                               ; preds = %8, %6
  call void @llvm.lifetime.end.p0(i64 8, ptr %2) #12
  %16 = load i64, ptr %1, align 8
  ret i64 %16
}

; Function Attrs: nounwind uwtable
define dso_local void @ReplicationSlotsShmemInit() #0 {
  %1 = alloca i8, align 1
  %2 = alloca i32, align 4
  %3 = alloca i32, align 4
  %4 = alloca ptr, align 8
  %5 = alloca i32, align 4
  %6 = alloca i64, align 8
  %7 = alloca ptr, align 8
  %8 = alloca ptr, align 8
  %9 = alloca ptr, align 8
  call void @llvm.lifetime.start.p0(i64 1, ptr %1) #12
  %10 = load i32, ptr @max_replication_slots, align 4
  %11 = icmp eq i32 %10, 0
  br i1 %11, label %12, label %13

12:                                               ; preds = %0
  store i32 1, ptr %2, align 4
  br label %81

13:                                               ; preds = %0
  %14 = call i64 @ReplicationSlotsShmemSize()
  %15 = call ptr @ShmemInitStruct(ptr noundef @.str.4, i64 noundef %14, ptr noundef %1)
  store ptr %15, ptr @ReplicationSlotCtl, align 8
  %16 = load i8, ptr %1, align 1, !range !4, !noundef !5
  %17 = trunc i8 %16 to i1
  br i1 %17, label %80, label %18

18:                                               ; preds = %13
  call void @llvm.lifetime.start.p0(i64 4, ptr %3) #12
  br label %19

19:                                               ; preds = %18
  call void @llvm.lifetime.start.p0(i64 8, ptr %4) #12
  %20 = load ptr, ptr @ReplicationSlotCtl, align 8
  store ptr %20, ptr %4, align 8
  call void @llvm.lifetime.start.p0(i64 4, ptr %5) #12
  store i32 0, ptr %5, align 4
  call void @llvm.lifetime.start.p0(i64 8, ptr %6) #12
  %21 = call i64 @ReplicationSlotsShmemSize()
  store i64 %21, ptr %6, align 8
  %22 = load ptr, ptr %4, align 8
  %23 = ptrtoint ptr %22 to i64
  %24 = and i64 %23, 7
  %25 = icmp eq i64 %24, 0
  br i1 %25, label %26, label %49

26:                                               ; preds = %19
  %27 = load i64, ptr %6, align 8
  %28 = and i64 %27, 7
  %29 = icmp eq i64 %28, 0
  br i1 %29, label %30, label %49

30:                                               ; preds = %26
  %31 = load i32, ptr %5, align 4
  %32 = icmp eq i32 %31, 0
  br i1 %32, label %33, label %49

33:                                               ; preds = %30
  %34 = load i64, ptr %6, align 8
  %35 = icmp ule i64 %34, 1024
  br i1 %35, label %36, label %49

36:                                               ; preds = %33
  call void @llvm.lifetime.start.p0(i64 8, ptr %7) #12
  %37 = load ptr, ptr %4, align 8
  store ptr %37, ptr %7, align 8
  call void @llvm.lifetime.start.p0(i64 8, ptr %8) #12
  %38 = load ptr, ptr %7, align 8
  %39 = load i64, ptr %6, align 8
  %40 = getelementptr inbounds nuw i8, ptr %38, i64 %39
  store ptr %40, ptr %8, align 8
  br label %41

41:                                               ; preds = %45, %36
  %42 = load ptr, ptr %7, align 8
  %43 = load ptr, ptr %8, align 8
  %44 = icmp ult ptr %42, %43
  br i1 %44, label %45, label %48

45:                                               ; preds = %41
  %46 = load ptr, ptr %7, align 8
  %47 = getelementptr inbounds nuw i64, ptr %46, i32 1
  store ptr %47, ptr %7, align 8
  store i64 0, ptr %46, align 8
  br label %41, !llvm.loop !6

48:                                               ; preds = %41
  call void @llvm.lifetime.end.p0(i64 8, ptr %8) #12
  call void @llvm.lifetime.end.p0(i64 8, ptr %7) #12
  br label %54

49:                                               ; preds = %33, %30, %26, %19
  %50 = load ptr, ptr %4, align 8
  %51 = load i32, ptr %5, align 4
  %52 = trunc i32 %51 to i8
  %53 = load i64, ptr %6, align 8
  call void @llvm.memset.p0.i64(ptr align 1 %50, i8 %52, i64 %53, i1 false)
  br label %54

54:                                               ; preds = %49, %48
  call void @llvm.lifetime.end.p0(i64 8, ptr %6) #12
  call void @llvm.lifetime.end.p0(i64 4, ptr %5) #12
  call void @llvm.lifetime.end.p0(i64 8, ptr %4) #12
  br label %55

55:                                               ; preds = %54
  br label %56

56:                                               ; preds = %55
  store i32 0, ptr %3, align 4
  br label %57

57:                                               ; preds = %76, %56
  %58 = load i32, ptr %3, align 4
  %59 = load i32, ptr @max_replication_slots, align 4
  %60 = icmp slt i32 %58, %59
  br i1 %60, label %61, label %79

61:                                               ; preds = %57
  call void @llvm.lifetime.start.p0(i64 8, ptr %9) #12
  %62 = load ptr, ptr @ReplicationSlotCtl, align 8
  %63 = getelementptr inbounds nuw %struct.ReplicationSlotCtlData, ptr %62, i32 0, i32 0
  %64 = load i32, ptr %3, align 4
  %65 = sext i32 %64 to i64
  %66 = getelementptr inbounds [1 x %struct.ReplicationSlot], ptr %63, i64 0, i64 %65
  store ptr %66, ptr %9, align 8
  br label %67

67:                                               ; preds = %61
  call void asm sideeffect "", "~{memory},~{dirflag},~{fpsr},~{flags}"() #12, !srcloc !8
  %68 = load ptr, ptr %9, align 8
  %69 = getelementptr inbounds nuw %struct.ReplicationSlot, ptr %68, i32 0, i32 0
  store i8 0, ptr %69, align 8
  br label %70

70:                                               ; preds = %67
  br label %71

71:                                               ; preds = %70
  %72 = load ptr, ptr %9, align 8
  %73 = getelementptr inbounds nuw %struct.ReplicationSlot, ptr %72, i32 0, i32 8
  call void @LWLockInitialize(ptr noundef %73, i32 noundef 63)
  %74 = load ptr, ptr %9, align 8
  %75 = getelementptr inbounds nuw %struct.ReplicationSlot, ptr %74, i32 0, i32 9
  call void @ConditionVariableInit(ptr noundef %75)
  call void @llvm.lifetime.end.p0(i64 8, ptr %9) #12
  br label %76

76:                                               ; preds = %71
  %77 = load i32, ptr %3, align 4
  %78 = add i32 %77, 1
  store i32 %78, ptr %3, align 4
  br label %57, !llvm.loop !9

79:                                               ; preds = %57
  call void @llvm.lifetime.end.p0(i64 4, ptr %3) #12
  br label %80

80:                                               ; preds = %79, %13
  store i32 0, ptr %2, align 4
  br label %81

81:                                               ; preds = %80, %12
  call void @llvm.lifetime.end.p0(i64 1, ptr %1) #12
  %82 = load i32, ptr %2, align 4
  switch i32 %82, label %84 [
    i32 0, label %83
    i32 1, label %83
  ]

83:                                               ; preds = %81, %81
  ret void

84:                                               ; preds = %81
  unreachable
}