; Function Attrs: nounwind uwtable
define dso_local void @ReplicationSlotsShmemInit() local_unnamed_addr #0 {
  %1 = alloca i8, align 1
  call void @llvm.lifetime.start.p0(i64 1, ptr nonnull %1) #17
  %2 = load i32, ptr @max_replication_slots, align 4
  %3 = icmp eq i32 %2, 0
  br i1 %3, label %.loopexit, label %ReplicationSlotsShmemSize.exit

ReplicationSlotsShmemSize.exit:                   ; preds = %0
  %4 = sext i32 %2 to i64
  %5 = tail call i64 @mul_size(i64 noundef %4, i64 noundef 280) #17
  %6 = tail call i64 @add_size(i64 noundef 0, i64 noundef %5) #17
  %7 = call ptr @ShmemInitStruct(ptr noundef nonnull @.str.4, i64 noundef %6, ptr noundef nonnull %1) #17
  store ptr %7, ptr @ReplicationSlotCtl, align 8
  %8 = load i8, ptr %1, align 1, !range !4, !noundef !5
  %9 = trunc nuw i8 %8 to i1
  br i1 %9, label %.loopexit, label %10

10:                                               ; preds = %ReplicationSlotsShmemSize.exit
  %11 = load i32, ptr @max_replication_slots, align 4
  %12 = icmp eq i32 %11, 0
  br i1 %12, label %ReplicationSlotsShmemSize.exit24, label %13

13:                                               ; preds = %10
  %14 = sext i32 %11 to i64
  %15 = call i64 @mul_size(i64 noundef %14, i64 noundef 280) #17
  %16 = call i64 @add_size(i64 noundef 0, i64 noundef %15) #17
  br label %ReplicationSlotsShmemSize.exit24

ReplicationSlotsShmemSize.exit24:                 ; preds = %10, %13
  %.0.i23 = phi i64 [ %16, %13 ], [ 0, %10 ]
  %17 = ptrtoint ptr %7 to i64
  %18 = and i64 %17, 7
  %19 = icmp eq i64 %18, 0
  br i1 %19, label %20, label %.loopexit25.sink.split

20:                                               ; preds = %ReplicationSlotsShmemSize.exit24
  %21 = and i64 %.0.i23, 7
  %22 = icmp eq i64 %21, 0
  %23 = icmp ult i64 %.0.i23, 1025
  %or.cond3 = and i1 %23, %22
  br i1 %or.cond3, label %24, label %.loopexit25.sink.split

24:                                               ; preds = %20
  %.not = icmp eq i64 %.0.i23, 0
  br i1 %.not, label %.loopexit25, label %.lr.ph.preheader

.lr.ph.preheader:                                 ; preds = %24
  %25 = add i64 %.0.i23, %17
  %26 = add i64 %17, 8
  %umax = call i64 @llvm.umax.i64(i64 %25, i64 %26)
  %27 = xor i64 %17, -1
  %28 = add i64 %umax, %27
  %29 = and i64 %28, -8
  %30 = add i64 %29, 8
  br label %.loopexit25.sink.split

.loopexit25.sink.split:                           ; preds = %ReplicationSlotsShmemSize.exit24, %20, %.lr.ph.preheader
  %.sink = phi i64 [ %30, %.lr.ph.preheader ], [ %.0.i23, %20 ], [ %.0.i23, %ReplicationSlotsShmemSize.exit24 ]
  call void @llvm.memset.p0.i64(ptr align 1 %7, i8 0, i64 %.sink, i1 false)
  br label %.loopexit25

.loopexit25:                                      ; preds = %.loopexit25.sink.split, %24
  %31 = load i32, ptr @max_replication_slots, align 4
  %32 = icmp sgt i32 %31, 0
  br i1 %32, label %.lr.ph28, label %.loopexit

.lr.ph28:                                         ; preds = %.loopexit25, %.lr.ph28
  %indvars.iv = phi i64 [ %indvars.iv.next, %.lr.ph28 ], [ 0, %.loopexit25 ]
  %33 = load ptr, ptr @ReplicationSlotCtl, align 8
  %34 = getelementptr inbounds nuw [1 x %struct.ReplicationSlot], ptr %33, i64 0, i64 %indvars.iv
  call void asm sideeffect "", "~{memory},~{dirflag},~{fpsr},~{flags}"() #17, !srcloc !6
  store i8 0, ptr %34, align 8
  %35 = getelementptr inbounds nuw i8, ptr %34, i64 208
  call void @LWLockInitialize(ptr noundef nonnull %35, i32 noundef 63) #17
  %36 = getelementptr inbounds nuw i8, ptr %34, i64 224
  call void @ConditionVariableInit(ptr noundef nonnull %36) #17
  %indvars.iv.next = add nuw nsw i64 %indvars.iv, 1
  %37 = load i32, ptr @max_replication_slots, align 4
  %38 = sext i32 %37 to i64
  %39 = icmp slt i64 %indvars.iv.next, %38
  br i1 %39, label %.lr.ph28, label %.loopexit, !llvm.loop !7

.loopexit:                                        ; preds = %.lr.ph28, %.loopexit25, %ReplicationSlotsShmemSize.exit, %0
  call void @llvm.lifetime.end.p0(i64 1, ptr nonnull %1) #17
  ret void
}